target datalayout = "e-m:e-p270:32:32-p271:32:32-p272:64:64-i64:64-i128:128-f80:128-n8:16:32:64-S128"
target triple = "x86_64-pc-linux-gnu"

%struct.Texture = type { i32, i32, i32, i32, i32 }
%struct.Rectangle = type { float, float, float, float }
%struct.Color = type { i8, i8, i8, i8 }
%struct.Vector2 = type { float, float }

@texShapes = internal global %struct.Texture { i32 1, i32 1, i32 1, i32 1, i32 7 }, align 4
@texShapesRec = internal global %struct.Rectangle { float 0.000000e+00, float 0.000000e+00, float 1.000000e+00, float 1.000000e+00 }, align 4

; Function Attrs: nounwind uwtable
define { <2 x float>, <2 x float> } @GetShapesTextureRectangle() #2 {
  %1 = alloca %struct.Rectangle, align 4
  call void @llvm.memcpy.p0.p0.i64(ptr align 4 %1, ptr align 4 @texShapesRec, i64 16, i1 false)
  %2 = load { <2 x float>, <2 x float> }, ptr %1, align 4
  ret { <2 x float>, <2 x float> } %2
}

; Function Attrs: nounwind uwtable
define void @GetShapesTexture(ptr dead_on_unwind noalias writable sret(%struct.Texture) align 4 %0) #2 {
  call void @llvm.memcpy.p0.p0.i64(ptr align 4 %0, ptr align 4 @texShapes, i64 20, i1 false)
  ret void
}

; Function Attrs: nounwind uwtable
define void @DrawRectanglePro(<2 x float> %0, <2 x float> %1, <2 x float> %2, float noundef %3, i32 %4) #0 {
  %6 = alloca %struct.Rectangle, align 4
  %7 = alloca %struct.Vector2, align 4
  %8 = alloca %struct.Color, align 1
  %9 = alloca float, align 4
  %10 = alloca %struct.Vector2, align 4
  %11 = alloca %struct.Vector2, align 4
  %12 = alloca %struct.Vector2, align 4
  %13 = alloca %struct.Vector2, align 4
  %14 = alloca float, align 4
  %15 = alloca float, align 4
  %16 = alloca %struct.Vector2, align 4
  %17 = alloca %struct.Vector2, align 4
  %18 = alloca %struct.Vector2, align 4
  %19 = alloca %struct.Vector2, align 4
  %20 = alloca float, align 4
  %21 = alloca float, align 4
  %22 = alloca float, align 4
  %23 = alloca float, align 4
  %24 = alloca float, align 4
  %25 = alloca float, align 4
  %26 = alloca %struct.Texture, align 4
  %27 = alloca %struct.Rectangle, align 4
  %28 = getelementptr inbounds nuw { <2 x float>, <2 x float> }, ptr %6, i32 0, i32 0
  store <2 x float> %0, ptr %28, align 4
  %29 = getelementptr inbounds nuw { <2 x float>, <2 x float> }, ptr %6, i32 0, i32 1
  store <2 x float> %1, ptr %29, align 4
  store <2 x float> %2, ptr %7, align 4
  store i32 %4, ptr %8, align 1
  store float %3, ptr %9, align 4
  call void @llvm.lifetime.start.p0(i64 8, ptr %10) #8
  call void @llvm.memset.p0.i64(ptr align 4 %10, i8 0, i64 8, i1 false)
  call void @llvm.lifetime.start.p0(i64 8, ptr %11) #8
  call void @llvm.memset.p0.i64(ptr align 4 %11, i8 0, i64 8, i1 false)
  call void @llvm.lifetime.start.p0(i64 8, ptr %12) #8
  call void @llvm.memset.p0.i64(ptr align 4 %12, i8 0, i64 8, i1 false)
  call void @llvm.lifetime.start.p0(i64 8, ptr %13) #8
  call void @llvm.memset.p0.i64(ptr align 4 %13, i8 0, i64 8, i1 false)
  %30 = load float, ptr %9, align 4
  %31 = fcmp oeq float %30, 0.000000e+00
  br i1 %31, label %32, label %71

32:                                               ; preds = %5
  call void @llvm.lifetime.start.p0(i64 4, ptr %14) #8
  %33 = getelementptr inbounds nuw %struct.Rectangle, ptr %6, i32 0, i32 0
  %34 = load float, ptr %33, align 4
  %35 = getelementptr inbounds nuw %struct.Vector2, ptr %7, i32 0, i32 0
  %36 = load float, ptr %35, align 4
  %37 = fsub float %34, %36
  store float %37, ptr %14, align 4
  call void @llvm.lifetime.start.p0(i64 4, ptr %15) #8
  %38 = getelementptr inbounds nuw %struct.Rectangle, ptr %6, i32 0, i32 1
  %39 = load float, ptr %38, align 4
  %40 = getelementptr inbounds nuw %struct.Vector2, ptr %7, i32 0, i32 1
  %41 = load float, ptr %40, align 4
  %42 = fsub float %39, %41
  store float %42, ptr %15, align 4
  %43 = getelementptr inbounds nuw %struct.Vector2, ptr %16, i32 0, i32 0
  %44 = load float, ptr %14, align 4
  store float %44, ptr %43, align 4
  %45 = getelementptr inbounds nuw %struct.Vector2, ptr %16, i32 0, i32 1
  %46 = load float, ptr %15, align 4
  store float %46, ptr %45, align 4
  call void @llvm.memcpy.p0.p0.i64(ptr align 4 %10, ptr align 4 %16, i64 8, i1 false)
  %47 = getelementptr inbounds nuw %struct.Vector2, ptr %17, i32 0, i32 0
  %48 = load float, ptr %14, align 4
  %49 = getelementptr inbounds nuw %struct.Rectangle, ptr %6, i32 0, i32 2
  %50 = load float, ptr %49, align 4
  %51 = fadd float %48, %50
  store float %51, ptr %47, align 4
  %52 = getelementptr inbounds nuw %struct.Vector2, ptr %17, i32 0, i32 1
  %53 = load float, ptr %15, align 4
  store float %53, ptr %52, align 4
  call void @llvm.memcpy.p0.p0.i64(ptr align 4 %11, ptr align 4 %17, i64 8, i1 false)
  %54 = getelementptr inbounds nuw %struct.Vector2, ptr %18, i32 0, i32 0
  %55 = load float, ptr %14, align 4
  store float %55, ptr %54, align 4
  %56 = getelementptr inbounds nuw %struct.Vector2, ptr %18, i32 0, i32 1
  %57 = load float, ptr %15, align 4
  %58 = getelementptr inbounds nuw %struct.Rectangle, ptr %6, i32 0, i32 3
  %59 = load float, ptr %58, align 4
  %60 = fadd float %57, %59
  store float %60, ptr %56, align 4
  call void @llvm.memcpy.p0.p0.i64(ptr align 4 %12, ptr align 4 %18, i64 8, i1 false)
  %61 = getelementptr inbounds nuw %struct.Vector2, ptr %19, i32 0, i32 0
  %62 = load float, ptr %14, align 4
  %63 = getelementptr inbounds nuw %struct.Rectangle, ptr %6, i32 0, i32 2
  %64 = load float, ptr %63, align 4
  %65 = fadd float %62, %64
  store float %65, ptr %61, align 4
  %66 = getelementptr inbounds nuw %struct.Vector2, ptr %19, i32 0, i32 1
  %67 = load float, ptr %15, align 4
  %68 = getelementptr inbounds nuw %struct.Rectangle, ptr %6, i32 0, i32 3
  %69 = load float, ptr %68, align 4
  %70 = fadd float %67, %69
  store float %70, ptr %66, align 4
  call void @llvm.memcpy.p0.p0.i64(ptr align 4 %13, ptr align 4 %19, i64 8, i1 false)
  call void @llvm.lifetime.end.p0(i64 4, ptr %15) #8
  call void @llvm.lifetime.end.p0(i64 4, ptr %14) #8
  br label %180

71:                                               ; preds = %5
  call void @llvm.lifetime.start.p0(i64 4, ptr %20) #8
  %72 = load float, ptr %9, align 4
  %73 = fmul float %72, 0x3F91DF46A0000000
  %74 = call float @sinf(float noundef %73) #8
  store float %74, ptr %20, align 4
  call void @llvm.lifetime.start.p0(i64 4, ptr %21) #8
  %75 = load float, ptr %9, align 4
  %76 = fmul float %75, 0x3F91DF46A0000000
  %77 = call float @cosf(float noundef %76) #8
  store float %77, ptr %21, align 4
  call void @llvm.lifetime.start.p0(i64 4, ptr %22) #8
  %78 = getelementptr inbounds nuw %struct.Rectangle, ptr %6, i32 0, i32 0
  %79 = load float, ptr %78, align 4
  store float %79, ptr %22, align 4
  call void @llvm.lifetime.start.p0(i64 4, ptr %23) #8
  %80 = getelementptr inbounds nuw %struct.Rectangle, ptr %6, i32 0, i32 1
  %81 = load float, ptr %80, align 4
  store float %81, ptr %23, align 4
  call void @llvm.lifetime.start.p0(i64 4, ptr %24) #8
  %82 = getelementptr inbounds nuw %struct.Vector2, ptr %7, i32 0, i32 0
  %83 = load float, ptr %82, align 4
  %84 = fneg float %83
  store float %84, ptr %24, align 4
  call void @llvm.lifetime.start.p0(i64 4, ptr %25) #8
  %85 = getelementptr inbounds nuw %struct.Vector2, ptr %7, i32 0, i32 1
  %86 = load float, ptr %85, align 4
  %87 = fneg float %86
  store float %87, ptr %25, align 4
  %88 = load float, ptr %22, align 4
  %89 = load float, ptr %24, align 4
  %90 = load float, ptr %21, align 4
  %91 = call float @llvm.fmuladd.f32(float %89, float %90, float %88)
  %92 = load float, ptr %25, align 4
  %93 = load float, ptr %20, align 4
  %94 = fneg float %92
  %95 = call float @llvm.fmuladd.f32(float %94, float %93, float %91)
  %96 = getelementptr inbounds nuw %struct.Vector2, ptr %10, i32 0, i32 0
  store float %95, ptr %96, align 4
  %97 = load float, ptr %23, align 4
  %98 = load float, ptr %24, align 4
  %99 = load float, ptr %20, align 4
  %100 = call float @llvm.fmuladd.f32(float %98, float %99, float %97)
  %101 = load float, ptr %25, align 4
  %102 = load float, ptr %21, align 4
  %103 = call float @llvm.fmuladd.f32(float %101, float %102, float %100)
  %104 = getelementptr inbounds nuw %struct.Vector2, ptr %10, i32 0, i32 1
  store float %103, ptr %104, align 4
  %105 = load float, ptr %22, align 4
  %106 = load float, ptr %24, align 4
  %107 = getelementptr inbounds nuw %struct.Rectangle, ptr %6, i32 0, i32 2
  %108 = load float, ptr %107, align 4
  %109 = fadd float %106, %108
  %110 = load float, ptr %21, align 4
  %111 = call float @llvm.fmuladd.f32(float %109, float %110, float %105)
  %112 = load float, ptr %25, align 4
  %113 = load float, ptr %20, align 4
  %114 = fneg float %112
  %115 = call float @llvm.fmuladd.f32(float %114, float %113, float %111)
  %116 = getelementptr inbounds nuw %struct.Vector2, ptr %11, i32 0, i32 0
  store float %115, ptr %116, align 4
  %117 = load float, ptr %23, align 4
  %118 = load float, ptr %24, align 4
  %119 = getelementptr inbounds nuw %struct.Rectangle, ptr %6, i32 0, i32 2
  %120 = load float, ptr %119, align 4
  %121 = fadd float %118, %120
  %122 = load float, ptr %20, align 4
  %123 = call float @llvm.fmuladd.f32(float %121, float %122, float %117)
  %124 = load float, ptr %25, align 4
  %125 = load float, ptr %21, align 4
  %126 = call float @llvm.fmuladd.f32(float %124, float %125, float %123)
  %127 = getelementptr inbounds nuw %struct.Vector2, ptr %11, i32 0, i32 1
  store float %126, ptr %127, align 4
  %128 = load float, ptr %22, align 4
  %129 = load float, ptr %24, align 4
  %130 = load float, ptr %21, align 4
  %131 = call float @llvm.fmuladd.f32(float %129, float %130, float %128)
  %132 = load float, ptr %25, align 4
  %133 = getelementptr inbounds nuw %struct.Rectangle, ptr %6, i32 0, i32 3
  %134 = load float, ptr %133, align 4
  %135 = fadd float %132, %134
  %136 = load float, ptr %20, align 4
  %137 = fneg float %135
  %138 = call float @llvm.fmuladd.f32(float %137, float %136, float %131)
  %139 = getelementptr inbounds nuw %struct.Vector2, ptr %12, i32 0, i32 0
  store float %138, ptr %139, align 4
  %140 = load float, ptr %23, align 4
  %141 = load float, ptr %24, align 4
  %142 = load float, ptr %20, align 4
  %143 = call float @llvm.fmuladd.f32(float %141, float %142, float %140)
  %144 = load float, ptr %25, align 4
  %145 = getelementptr inbounds nuw %struct.Rectangle, ptr %6, i32 0, i32 3
  %146 = load float, ptr %145, align 4
  %147 = fadd float %144, %146
  %148 = load float, ptr %21, align 4
  %149 = call float @llvm.fmuladd.f32(float %147, float %148, float %143)
  %150 = getelementptr inbounds nuw %struct.Vector2, ptr %12, i32 0, i32 1
  store float %149, ptr %150, align 4
  %151 = load float, ptr %22, align 4
  %152 = load float, ptr %24, align 4
  %153 = getelementptr inbounds nuw %struct.Rectangle, ptr %6, i32 0, i32 2
  %154 = load float, ptr %153, align 4
  %155 = fadd float %152, %154
  %156 = load float, ptr %21, align 4
  %157 = call float @llvm.fmuladd.f32(float %155, float %156, float %151)
  %158 = load float, ptr %25, align 4
  %159 = getelementptr inbounds nuw %struct.Rectangle, ptr %6, i32 0, i32 3
  %160 = load float, ptr %159, align 4
  %161 = fadd float %158, %160
  %162 = load float, ptr %20, align 4
  %163 = fneg float %161
  %164 = call float @llvm.fmuladd.f32(float %163, float %162, float %157)
  %165 = getelementptr inbounds nuw %struct.Vector2, ptr %13, i32 0, i32 0
  store float %164, ptr %165, align 4
  %166 = load float, ptr %23, align 4
  %167 = load float, ptr %24, align 4
  %168 = getelementptr inbounds nuw %struct.Rectangle, ptr %6, i32 0, i32 2
  %169 = load float, ptr %168, align 4
  %170 = fadd float %167, %169
  %171 = load float, ptr %20, align 4
  %172 = call float @llvm.fmuladd.f32(float %170, float %171, float %166)
  %173 = load float, ptr %25, align 4
  %174 = getelementptr inbounds nuw %struct.Rectangle, ptr %6, i32 0, i32 3
  %175 = load float, ptr %174, align 4
  %176 = fadd float %173, %175
  %177 = load float, ptr %21, align 4
  %178 = call float @llvm.fmuladd.f32(float %176, float %177, float %172)
  %179 = getelementptr inbounds nuw %struct.Vector2, ptr %13, i32 0, i32 1
  store float %178, ptr %179, align 4
  call void @llvm.lifetime.end.p0(i64 4, ptr %25) #8
  call void @llvm.lifetime.end.p0(i64 4, ptr %24) #8
  call void @llvm.lifetime.end.p0(i64 4, ptr %23) #8
  call void @llvm.lifetime.end.p0(i64 4, ptr %22) #8
  call void @llvm.lifetime.end.p0(i64 4, ptr %21) #8
  call void @llvm.lifetime.end.p0(i64 4, ptr %20) #8
  br label %180

180:                                              ; preds = %71, %32
  call void @GetShapesTexture(ptr dead_on_unwind writable sret(%struct.Texture) align 4 %26)
  %181 = getelementptr inbounds nuw %struct.Texture, ptr %26, i32 0, i32 0
  %182 = load i32, ptr %181, align 4
  call void @rlSetTexture(i32 noundef %182)
  call void @llvm.lifetime.start.p0(i64 16, ptr %27) #8
  %183 = call { <2 x float>, <2 x float> } @GetShapesTextureRectangle()
  %184 = getelementptr inbounds nuw { <2 x float>, <2 x float> }, ptr %27, i32 0, i32 0
  %185 = extractvalue { <2 x float>, <2 x float> } %183, 0
  store <2 x float> %185, ptr %184, align 4
  %186 = getelementptr inbounds nuw { <2 x float>, <2 x float> }, ptr %27, i32 0, i32 1
  %187 = extractvalue { <2 x float>, <2 x float> } %183, 1
  store <2 x float> %187, ptr %186, align 4
  call void @rlBegin(i32 noundef 7)
  call void @rlNormal3f(float noundef 0.000000e+00, float noundef 0.000000e+00, float noundef 1.000000e+00)
  %188 = getelementptr inbounds nuw %struct.Color, ptr %8, i32 0, i32 0
  %189 = load i8, ptr %188, align 1
  %190 = getelementptr inbounds nuw %struct.Color, ptr %8, i32 0, i32 1
  %191 = load i8, ptr %190, align 1
  %192 = getelementptr inbounds nuw %struct.Color, ptr %8, i32 0, i32 2
  %193 = load i8, ptr %192, align 1
  %194 = getelementptr inbounds nuw %struct.Color, ptr %8, i32 0, i32 3
  %195 = load i8, ptr %194, align 1
  call void @rlColor4ub(i8 noundef zeroext %189, i8 noundef zeroext %191, i8 noundef zeroext %193, i8 noundef zeroext %195)
  %196 = getelementptr inbounds nuw %struct.Rectangle, ptr %27, i32 0, i32 0
  %197 = load float, ptr %196, align 4
  %198 = load i32, ptr getelementptr inbounds nuw (%struct.Texture, ptr @texShapes, i32 0, i32 1), align 4
  %199 = sitofp i32 %198 to float
  %200 = fdiv float %197, %199
  %201 = getelementptr inbounds nuw %struct.Rectangle, ptr %27, i32 0, i32 1
  %202 = load float, ptr %201, align 4
  %203 = load i32, ptr getelementptr inbounds nuw (%struct.Texture, ptr @texShapes, i32 0, i32 2), align 4
  %204 = sitofp i32 %203 to float
  %205 = fdiv float %202, %204
  call void @rlTexCoord2f(float noundef %200, float noundef %205)
  %206 = getelementptr inbounds nuw %struct.Vector2, ptr %10, i32 0, i32 0
  %207 = load float, ptr %206, align 4
  %208 = getelementptr inbounds nuw %struct.Vector2, ptr %10, i32 0, i32 1
  %209 = load float, ptr %208, align 4
  call void @rlVertex2f(float noundef %207, float noundef %209)
  %210 = getelementptr inbounds nuw %struct.Rectangle, ptr %27, i32 0, i32 0
  %211 = load float, ptr %210, align 4
  %212 = load i32, ptr getelementptr inbounds nuw (%struct.Texture, ptr @texShapes, i32 0, i32 1), align 4
  %213 = sitofp i32 %212 to float
  %214 = fdiv float %211, %213
  %215 = getelementptr inbounds nuw %struct.Rectangle, ptr %27, i32 0, i32 1
  %216 = load float, ptr %215, align 4
  %217 = getelementptr inbounds nuw %struct.Rectangle, ptr %27, i32 0, i32 3
  %218 = load float, ptr %217, align 4
  %219 = fadd float %216, %218
  %220 = load i32, ptr getelementptr inbounds nuw (%struct.Texture, ptr @texShapes, i32 0, i32 2), align 4
  %221 = sitofp i32 %220 to float
  %222 = fdiv float %219, %221
  call void @rlTexCoord2f(float noundef %214, float noundef %222)
  %223 = getelementptr inbounds nuw %struct.Vector2, ptr %12, i32 0, i32 0
  %224 = load float, ptr %223, align 4
  %225 = getelementptr inbounds nuw %struct.Vector2, ptr %12, i32 0, i32 1
  %226 = load float, ptr %225, align 4
  call void @rlVertex2f(float noundef %224, float noundef %226)
  %227 = getelementptr inbounds nuw %struct.Rectangle, ptr %27, i32 0, i32 0
  %228 = load float, ptr %227, align 4
  %229 = getelementptr inbounds nuw %struct.Rectangle, ptr %27, i32 0, i32 2
  %230 = load float, ptr %229, align 4
  %231 = fadd float %228, %230
  %232 = load i32, ptr getelementptr inbounds nuw (%struct.Texture, ptr @texShapes, i32 0, i32 1), align 4
  %233 = sitofp i32 %232 to float
  %234 = fdiv float %231, %233
  %235 = getelementptr inbounds nuw %struct.Rectangle, ptr %27, i32 0, i32 1
  %236 = load float, ptr %235, align 4
  %237 = getelementptr inbounds nuw %struct.Rectangle, ptr %27, i32 0, i32 3
  %238 = load float, ptr %237, align 4
  %239 = fadd float %236, %238
  %240 = load i32, ptr getelementptr inbounds nuw (%struct.Texture, ptr @texShapes, i32 0, i32 2), align 4
  %241 = sitofp i32 %240 to float
  %242 = fdiv float %239, %241
  call void @rlTexCoord2f(float noundef %234, float noundef %242)
  %243 = getelementptr inbounds nuw %struct.Vector2, ptr %13, i32 0, i32 0
  %244 = load float, ptr %243, align 4
  %245 = getelementptr inbounds nuw %struct.Vector2, ptr %13, i32 0, i32 1
  %246 = load float, ptr %245, align 4
  call void @rlVertex2f(float noundef %244, float noundef %246)
  %247 = getelementptr inbounds nuw %struct.Rectangle, ptr %27, i32 0, i32 0
  %248 = load float, ptr %247, align 4
  %249 = getelementptr inbounds nuw %struct.Rectangle, ptr %27, i32 0, i32 2
  %250 = load float, ptr %249, align 4
  %251 = fadd float %248, %250
  %252 = load i32, ptr getelementptr inbounds nuw (%struct.Texture, ptr @texShapes, i32 0, i32 1), align 4
  %253 = sitofp i32 %252 to float
  %254 = fdiv float %251, %253
  %255 = getelementptr inbounds nuw %struct.Rectangle, ptr %27, i32 0, i32 1
  %256 = load float, ptr %255, align 4
  %257 = load i32, ptr getelementptr inbounds nuw (%struct.Texture, ptr @texShapes, i32 0, i32 2), align 4
  %258 = sitofp i32 %257 to float
  %259 = fdiv float %256, %258
  call void @rlTexCoord2f(float noundef %254, float noundef %259)
  %260 = getelementptr inbounds nuw %struct.Vector2, ptr %11, i32 0, i32 0
  %261 = load float, ptr %260, align 4
  %262 = getelementptr inbounds nuw %struct.Vector2, ptr %11, i32 0, i32 1
  %263 = load float, ptr %262, align 4
  call void @rlVertex2f(float noundef %261, float noundef %263)
  call void @rlEnd()
  call void @rlSetTexture(i32 noundef 0)
  call void @llvm.lifetime.end.p0(i64 16, ptr %27) #8
  call void @llvm.lifetime.end.p0(i64 8, ptr %13) #8
  call void @llvm.lifetime.end.p0(i64 8, ptr %12) #8
  call void @llvm.lifetime.end.p0(i64 8, ptr %11) #8
  call void @llvm.lifetime.end.p0(i64 8, ptr %10) #8
  ret void
}