; Function Attrs: nounwind uwtable
define void @DrawRectanglePro(<2 x float> %0, <2 x float> %1, <2 x float> %2, float noundef %3, i32 %4) local_unnamed_addr #4 {
  %6 = fcmp oeq float %3, 0.000000e+00
  br i1 %6, label %7, label %16

7:                                                ; preds = %5
  %8 = fsub <2 x float> %0, %2
  %9 = extractelement <2 x float> %8, i64 0
  %10 = fsub <2 x float> %0, %2
  %11 = extractelement <2 x float> %10, i64 1
  %12 = fadd <2 x float> %1, %8
  %13 = extractelement <2 x float> %12, i64 0
  %14 = fadd <2 x float> %1, %10
  %15 = extractelement <2 x float> %14, i64 1
  br label %39

16:                                               ; preds = %5
  %17 = fmul float %3, 0x3F91DF46A0000000
  %18 = tail call float @sinf(float noundef %17) #16
  %19 = tail call float @cosf(float noundef %17) #16
  %.sroa.088.0.vec.extract90 = extractelement <2 x float> %0, i64 0
  %.sroa.088.4.vec.extract92 = extractelement <2 x float> %0, i64 1
  %.sroa.083.0.vec.extract85 = extractelement <2 x float> %2, i64 0
  %20 = fneg float %.sroa.083.0.vec.extract85
  %.sroa.083.4.vec.extract87 = extractelement <2 x float> %2, i64 1
  %21 = fneg float %.sroa.083.4.vec.extract87
  %22 = tail call float @llvm.fmuladd.f32(float %20, float %19, float %.sroa.088.0.vec.extract90)
  %23 = tail call float @llvm.fmuladd.f32(float %.sroa.083.4.vec.extract87, float %18, float %22)
  %24 = tail call float @llvm.fmuladd.f32(float %20, float %18, float %.sroa.088.4.vec.extract92)
  %25 = tail call float @llvm.fmuladd.f32(float %21, float %19, float %24)
  %26 = fsub <2 x float> %1, %2
  %27 = extractelement <2 x float> %26, i64 0
  %28 = tail call float @llvm.fmuladd.f32(float %27, float %19, float %.sroa.088.0.vec.extract90)
  %29 = tail call float @llvm.fmuladd.f32(float %.sroa.083.4.vec.extract87, float %18, float %28)
  %30 = tail call float @llvm.fmuladd.f32(float %27, float %18, float %.sroa.088.4.vec.extract92)
  %31 = tail call float @llvm.fmuladd.f32(float %21, float %19, float %30)
  %32 = fsub <2 x float> %1, %2
  %33 = extractelement <2 x float> %32, i64 1
  %34 = fneg float %33
  %35 = tail call float @llvm.fmuladd.f32(float %34, float %18, float %22)
  %36 = tail call float @llvm.fmuladd.f32(float %33, float %19, float %24)
  %37 = tail call float @llvm.fmuladd.f32(float %34, float %18, float %28)
  %38 = tail call float @llvm.fmuladd.f32(float %33, float %19, float %30)
  br label %39

39:                                               ; preds = %16, %7
  %.sroa.6.0 = phi float [ %15, %7 ], [ %38, %16 ]
  %.sroa.071.0 = phi float [ %13, %7 ], [ %37, %16 ]
  %.sroa.673.0 = phi float [ %15, %7 ], [ %36, %16 ]
  %.sroa.072.0 = phi float [ %9, %7 ], [ %35, %16 ]
  %.sroa.675.0 = phi float [ %11, %7 ], [ %31, %16 ]
  %.sroa.074.0 = phi float [ %13, %7 ], [ %29, %16 ]
  %.sroa.677.0 = phi float [ %11, %7 ], [ %25, %16 ]
  %.sroa.076.0 = phi float [ %9, %7 ], [ %23, %16 ]
  %.sroa.4.0.extract.shift = lshr i32 %4, 24
  %.sroa.4.0.extract.trunc = trunc nuw i32 %.sroa.4.0.extract.shift to i8
  %.sroa.3.0.extract.shift = lshr i32 %4, 16
  %.sroa.3.0.extract.trunc = trunc i32 %.sroa.3.0.extract.shift to i8
  %.sroa.282.0.extract.shift = lshr i32 %4, 8
  %.sroa.282.0.extract.trunc = trunc i32 %.sroa.282.0.extract.shift to i8
  %.sroa.081.0.extract.trunc = trunc i32 %4 to i8
  %.sroa.0.0.copyload = load i32, ptr @texShapes, align 4
  tail call void @rlSetTexture(i32 noundef %.sroa.0.0.copyload) #16
  %.sroa.0.0.copyload.i = load <2 x float>, ptr @texShapesRec, align 8
  %.sroa.2.0.copyload.i = load <2 x float>, ptr getelementptr inbounds nuw (i8, ptr @texShapesRec, i64 8), align 8
  tail call void @rlBegin(i32 noundef 7) #16
  tail call void @rlNormal3f(float noundef 0.000000e+00, float noundef 0.000000e+00, float noundef 1.000000e+00) #16
  tail call void @rlColor4ub(i8 noundef zeroext %.sroa.081.0.extract.trunc, i8 noundef zeroext %.sroa.282.0.extract.trunc, i8 noundef zeroext %.sroa.3.0.extract.trunc, i8 noundef zeroext %.sroa.4.0.extract.trunc) #16
  %.sroa.0.0.vec.extract = extractelement <2 x float> %.sroa.0.0.copyload.i, i64 0
  %40 = load i32, ptr getelementptr inbounds nuw (i8, ptr @texShapes, i64 4), align 4
  %41 = sitofp i32 %40 to float
  %42 = fdiv float %.sroa.0.0.vec.extract, %41
  %.sroa.0.4.vec.extract = extractelement <2 x float> %.sroa.0.0.copyload.i, i64 1
  %43 = load i32, ptr getelementptr inbounds nuw (i8, ptr @texShapes, i64 8), align 4
  %44 = sitofp i32 %43 to float
  %45 = fdiv float %.sroa.0.4.vec.extract, %44
  tail call void @rlTexCoord2f(float noundef %42, float noundef %45) #16
  tail call void @rlVertex2f(float noundef %.sroa.076.0, float noundef %.sroa.677.0) #16
  %46 = load i32, ptr getelementptr inbounds nuw (i8, ptr @texShapes, i64 4), align 4
  %47 = sitofp i32 %46 to float
  %48 = fdiv float %.sroa.0.0.vec.extract, %47
  %49 = fadd <2 x float> %.sroa.0.0.copyload.i, %.sroa.2.0.copyload.i
  %50 = extractelement <2 x float> %49, i64 1
  %51 = load i32, ptr getelementptr inbounds nuw (i8, ptr @texShapes, i64 8), align 4
  %52 = sitofp i32 %51 to float
  %53 = fdiv float %50, %52
  tail call void @rlTexCoord2f(float noundef %48, float noundef %53) #16
  tail call void @rlVertex2f(float noundef %.sroa.072.0, float noundef %.sroa.673.0) #16
  %54 = fadd <2 x float> %.sroa.0.0.copyload.i, %.sroa.2.0.copyload.i
  %55 = extractelement <2 x float> %54, i64 0
  %56 = load i32, ptr getelementptr inbounds nuw (i8, ptr @texShapes, i64 4), align 4
  %57 = sitofp i32 %56 to float
  %58 = fdiv float %55, %57
  %59 = load i32, ptr getelementptr inbounds nuw (i8, ptr @texShapes, i64 8), align 4
  %60 = sitofp i32 %59 to float
  %61 = fdiv float %50, %60
  tail call void @rlTexCoord2f(float noundef %58, float noundef %61) #16
  tail call void @rlVertex2f(float noundef %.sroa.071.0, float noundef %.sroa.6.0) #16
  %62 = load i32, ptr getelementptr inbounds nuw (i8, ptr @texShapes, i64 4), align 4
  %63 = sitofp i32 %62 to float
  %64 = fdiv float %55, %63
  %65 = load i32, ptr getelementptr inbounds nuw (i8, ptr @texShapes, i64 8), align 4
  %66 = sitofp i32 %65 to float
  %67 = fdiv float %.sroa.0.4.vec.extract, %66
  tail call void @rlTexCoord2f(float noundef %64, float noundef %67) #16
  tail call void @rlVertex2f(float noundef %.sroa.074.0, float noundef %.sroa.675.0) #16
  tail call void @rlEnd() #16
  tail call void @rlSetTexture(i32 noundef 0) #16
  ret void
}